target datalayout = "e-m:e-p270:32:32-p271:32:32-p272:64:64-i64:64-i128:128-f80:128-n8:16:32:64-S128"
target triple = "x86_64-pc-linux-gnu"

%"class.arrow::util::tracing::Span" = type { %"class.std::unique_ptr" }
%"class.std::unique_ptr" = type { %"struct.std::__uniq_ptr_data" }
%"struct.std::__uniq_ptr_data" = type { %"class.std::__uniq_ptr_impl" }
%"class.std::__uniq_ptr_impl" = type { %"class.std::tuple" }
%"class.std::tuple" = type { %"struct.std::_Tuple_impl" }
%"struct.std::_Tuple_impl" = type { %"struct.std::_Head_base.1" }
%"struct.std::_Head_base.1" = type { ptr }

$_ZNSt10unique_ptrIN5arrow4util7tracing11SpanDetailsESt14default_deleteIS3_EEC2IS5_vEEv = comdat any

$_ZNSt15__uniq_ptr_dataIN5arrow4util7tracing11SpanDetailsESt14default_deleteIS3_ELb1ELb1EEC2Ev = comdat any

$_ZNSt15__uniq_ptr_implIN5arrow4util7tracing11SpanDetailsESt14default_deleteIS3_EEC2Ev = comdat any

$_ZNSt5tupleIJPN5arrow4util7tracing11SpanDetailsESt14default_deleteIS3_EEEC2ILb1ETnNSt9enable_ifIXclsr17_TupleConstraintsIXT_ES4_S6_EE37__is_implicitly_default_constructibleEEbE4typeELb1EEEv = comdat any

$_ZNSt11_Tuple_implILm0EJPN5arrow4util7tracing11SpanDetailsESt14default_deleteIS3_EEEC2Ev = comdat any

$__clang_call_terminate = comdat any

$_ZNSt11_Tuple_implILm1EJSt14default_deleteIN5arrow4util7tracing11SpanDetailsEEEEC2Ev = comdat any

$_ZNSt10_Head_baseILm0EPN5arrow4util7tracing11SpanDetailsELb0EEC2Ev = comdat any

$_ZNSt10_Head_baseILm1ESt14default_deleteIN5arrow4util7tracing11SpanDetailsEELb1EEC2Ev = comdat any

@_ZN5arrow4util7tracing4SpanC1Ev = unnamed_addr alias void (ptr), ptr @_ZN5arrow4util7tracing4SpanC2Ev

; Function Attrs: mustprogress nounwind uwtable
define void @_ZN5arrow4util7tracing4SpanC2Ev(ptr noundef nonnull align 8 dereferenceable(8) %0) unnamed_addr #0 align 2 {
  %2 = alloca ptr, align 8
  store ptr %0, ptr %2, align 8, !tbaa !3
  %3 = load ptr, ptr %2, align 8
  %4 = getelementptr inbounds nuw %"class.arrow::util::tracing::Span", ptr %3, i32 0, i32 0
  call void @_ZNSt10unique_ptrIN5arrow4util7tracing11SpanDetailsESt14default_deleteIS3_EEC2IS5_vEEv(ptr noundef nonnull align 8 dereferenceable(8) %4) #5
  ret void
}

; Function Attrs: mustprogress nounwind uwtable
define linkonce_odr void @_ZNSt10unique_ptrIN5arrow4util7tracing11SpanDetailsESt14default_deleteIS3_EEC2IS5_vEEv(ptr noundef nonnull align 8 dereferenceable(8) %0) unnamed_addr #0 comdat align 2 {
  %2 = alloca ptr, align 8
  store ptr %0, ptr %2, align 8, !tbaa !8
  %3 = load ptr, ptr %2, align 8
  %4 = getelementptr inbounds nuw %"class.std::unique_ptr", ptr %3, i32 0, i32 0
  call void @llvm.memset.p0.i64(ptr align 8 %4, i8 0, i64 8, i1 false)
  call void @_ZNSt15__uniq_ptr_dataIN5arrow4util7tracing11SpanDetailsESt14default_deleteIS3_ELb1ELb1EEC2Ev(ptr noundef nonnull align 8 dereferenceable(8) %4) #5
  ret void
}

; Function Attrs: mustprogress nounwind uwtable
define noundef zeroext i1 @_ZNK5arrow4util7tracing4Span5validEv(ptr noundef nonnull align 8 dereferenceable(8) %0) #0 align 2 {
  %2 = alloca ptr, align 8
  store ptr %0, ptr %2, align 8, !tbaa !3
  ret i1 false
}

; Function Attrs: mustprogress nounwind uwtable
define void @_ZN5arrow4util7tracing4Span5resetEv(ptr noundef nonnull align 8 dereferenceable(8) %0) #0 align 2 {
  %2 = alloca ptr, align 8
  store ptr %0, ptr %2, align 8, !tbaa !3
  ret void
}

; Function Attrs: nocallback nofree nounwind willreturn memory(argmem: write)
declare void @llvm.memset.p0.i64(ptr writeonly captures(none), i8, i64, i1 immarg) #1

; Function Attrs: inlinehint mustprogress nounwind uwtable
define linkonce_odr void @_ZNSt15__uniq_ptr_dataIN5arrow4util7tracing11SpanDetailsESt14default_deleteIS3_ELb1ELb1EEC2Ev(ptr noundef nonnull align 8 dereferenceable(8) %0) unnamed_addr #2 comdat align 2 {
  %2 = alloca ptr, align 8
  store ptr %0, ptr %2, align 8, !tbaa !10
  %3 = load ptr, ptr %2, align 8
  call void @_ZNSt15__uniq_ptr_implIN5arrow4util7tracing11SpanDetailsESt14default_deleteIS3_EEC2Ev(ptr noundef nonnull align 8 dereferenceable(8) %3) #5
  ret void
}

; Function Attrs: mustprogress nounwind uwtable
define linkonce_odr void @_ZNSt15__uniq_ptr_implIN5arrow4util7tracing11SpanDetailsESt14default_deleteIS3_EEC2Ev(ptr noundef nonnull align 8 dereferenceable(8) %0) unnamed_addr #0 comdat align 2 {
  %2 = alloca ptr, align 8
  store ptr %0, ptr %2, align 8, !tbaa !12
  %3 = load ptr, ptr %2, align 8
  %4 = getelementptr inbounds nuw %"class.std::__uniq_ptr_impl", ptr %3, i32 0, i32 0
  call void @_ZNSt5tupleIJPN5arrow4util7tracing11SpanDetailsESt14default_deleteIS3_EEEC2ILb1ETnNSt9enable_ifIXclsr17_TupleConstraintsIXT_ES4_S6_EE37__is_implicitly_default_constructibleEEbE4typeELb1EEEv(ptr noundef nonnull align 8 dereferenceable(8) %4) #5
  ret void
}

; Function Attrs: mustprogress nounwind uwtable
define linkonce_odr void @_ZNSt5tupleIJPN5arrow4util7tracing11SpanDetailsESt14default_deleteIS3_EEEC2ILb1ETnNSt9enable_ifIXclsr17_TupleConstraintsIXT_ES4_S6_EE37__is_implicitly_default_constructibleEEbE4typeELb1EEEv(ptr noundef nonnull align 8 dereferenceable(8) %0) unnamed_addr #0 comdat align 2 personality ptr @__gxx_personality_v0 {
  %2 = alloca ptr, align 8
  store ptr %0, ptr %2, align 8, !tbaa !14
  %3 = load ptr, ptr %2, align 8
  invoke void @_ZNSt11_Tuple_implILm0EJPN5arrow4util7tracing11SpanDetailsESt14default_deleteIS3_EEEC2Ev(ptr noundef nonnull align 8 dereferenceable(8) %3)
          to label %4 unwind label %5

4:                                                ; preds = %1
  ret void

5:                                                ; preds = %1
  %6 = landingpad { ptr, i32 }
          catch ptr null
  %7 = extractvalue { ptr, i32 } %6, 0
  call void @__clang_call_terminate(ptr %7) #6
  unreachable
}

; Function Attrs: mustprogress uwtable
define linkonce_odr void @_ZNSt11_Tuple_implILm0EJPN5arrow4util7tracing11SpanDetailsESt14default_deleteIS3_EEEC2Ev(ptr noundef nonnull align 8 dereferenceable(8) %0) unnamed_addr #3 comdat align 2 {
  %2 = alloca ptr, align 8
  store ptr %0, ptr %2, align 8, !tbaa !16
  %3 = load ptr, ptr %2, align 8
  call void @_ZNSt11_Tuple_implILm1EJSt14default_deleteIN5arrow4util7tracing11SpanDetailsEEEEC2Ev(ptr noundef nonnull align 1 dereferenceable(1) %3)
  call void @_ZNSt10_Head_baseILm0EPN5arrow4util7tracing11SpanDetailsELb0EEC2Ev(ptr noundef nonnull align 8 dereferenceable(8) %3)
  ret void
}

declare i32 @__gxx_personality_v0(...)

; Function Attrs: noinline noreturn nounwind uwtable
define linkonce_odr hidden void @__clang_call_terminate(ptr noundef %0) #4 comdat {
  %2 = call ptr @__cxa_begin_catch(ptr %0) #5
  call void @_ZSt9terminatev() #6
  unreachable
}

declare ptr @__cxa_begin_catch(ptr)

declare void @_ZSt9terminatev()

; Function Attrs: mustprogress uwtable
define linkonce_odr void @_ZNSt11_Tuple_implILm1EJSt14default_deleteIN5arrow4util7tracing11SpanDetailsEEEEC2Ev(ptr noundef nonnull align 1 dereferenceable(1) %0) unnamed_addr #3 comdat align 2 {
  %2 = alloca ptr, align 8
  store ptr %0, ptr %2, align 8, !tbaa !18
  %3 = load ptr, ptr %2, align 8
  call void @_ZNSt10_Head_baseILm1ESt14default_deleteIN5arrow4util7tracing11SpanDetailsEELb1EEC2Ev(ptr noundef nonnull align 1 dereferenceable(1) %3)
  ret void
}

; Function Attrs: mustprogress nounwind uwtable
define linkonce_odr void @_ZNSt10_Head_baseILm0EPN5arrow4util7tracing11SpanDetailsELb0EEC2Ev(ptr noundef nonnull align 8 dereferenceable(8) %0) unnamed_addr #0 comdat align 2 {
  %2 = alloca ptr, align 8
  store ptr %0, ptr %2, align 8, !tbaa !20
  %3 = load ptr, ptr %2, align 8
  %4 = getelementptr inbounds nuw %"struct.std::_Head_base.1", ptr %3, i32 0, i32 0
  store ptr null, ptr %4, align 8, !tbaa !22
  ret void
}

; Function Attrs: mustprogress nounwind uwtable
define linkonce_odr void @_ZNSt10_Head_baseILm1ESt14default_deleteIN5arrow4util7tracing11SpanDetailsEELb1EEC2Ev(ptr noundef nonnull align 1 dereferenceable(1) %0) unnamed_addr #0 comdat align 2 {
  %2 = alloca ptr, align 8
  store ptr %0, ptr %2, align 8, !tbaa !25
  ret void
}


!llvm.module.flags = !{!0, !1, !2}

!0 = !{i32 1, !"wchar_size", i32 4}
!1 = !{i32 8, !"PIC Level", i32 2}
!2 = !{i32 7, !"uwtable", i32 2}
!3 = !{!4, !4, i64 0}
!4 = !{!"p1 _ZTSN5arrow4util7tracing4SpanE", !5, i64 0}
!5 = !{!"any pointer", !6, i64 0}
!6 = !{!"omnipotent char", !7, i64 0}
!7 = !{!"Simple C++ TBAA"}
!8 = !{!9, !9, i64 0}
!9 = !{!"p1 _ZTSSt10unique_ptrIN5arrow4util7tracing11SpanDetailsESt14default_deleteIS3_EE", !5, i64 0}
!10 = !{!11, !11, i64 0}
!11 = !{!"p1 _ZTSSt15__uniq_ptr_dataIN5arrow4util7tracing11SpanDetailsESt14default_deleteIS3_ELb1ELb1EE", !5, i64 0}
!12 = !{!13, !13, i64 0}
!13 = !{!"p1 _ZTSSt15__uniq_ptr_implIN5arrow4util7tracing11SpanDetailsESt14default_deleteIS3_EE", !5, i64 0}
!14 = !{!15, !15, i64 0}
!15 = !{!"p1 _ZTSSt5tupleIJPN5arrow4util7tracing11SpanDetailsESt14default_deleteIS3_EEE", !5, i64 0}
!16 = !{!17, !17, i64 0}
!17 = !{!"p1 _ZTSSt11_Tuple_implILm0EJPN5arrow4util7tracing11SpanDetailsESt14default_deleteIS3_EEE", !5, i64 0}
!18 = !{!19, !19, i64 0}
!19 = !{!"p1 _ZTSSt11_Tuple_implILm1EJSt14default_deleteIN5arrow4util7tracing11SpanDetailsEEEE", !5, i64 0}
!20 = !{!21, !21, i64 0}
!21 = !{!"p1 _ZTSSt10_Head_baseILm0EPN5arrow4util7tracing11SpanDetailsELb0EE", !5, i64 0}
!22 = !{!23, !24, i64 0}
!23 = !{!"_ZTSSt10_Head_baseILm0EPN5arrow4util7tracing11SpanDetailsELb0EE", !24, i64 0}
!24 = !{!"p1 _ZTSN5arrow4util7tracing11SpanDetailsE", !5, i64 0}
!25 = !{!26, !26, i64 0}
!26 = !{!"p1 _ZTSSt10_Head_baseILm1ESt14default_deleteIN5arrow4util7tracing11SpanDetailsEELb1EE", !5, i64 0}
